target datalayout = "e-m:e-p270:32:32-p271:32:32-p272:64:64-i64:64-i128:128-f80:128-n8:16:32:64-S128"
target triple = "x86_64-unknown-linux-gnu"

%"struct.bound_propagator::bound" = type { %class.mpq, double, i32, i32, %union.anon, ptr }
%class.mpq = type { %class.mpz, %class.mpz }
%class.mpz = type { i32, i8, ptr }
%union.anon = type { i32 }
%class.bound_propagator = type { ptr, ptr, %class.linear_equation_manager, %class.svector.4, %class.svector.0, %class.svector.0, %class.ptr_vector, %class.ptr_vector, %class.vector.7, %class.svector.8, i32, %class.svector.2, %class.svector.2, %class.svector.2, i32, i32, %class.mpq, %class.svector.10, %class.svector.2, i32, double, double, double, i32, i32, i32, %class.svector.12 }
%class.linear_equation_manager = type { ptr, ptr, %class.numeral_buffer, %class.numeral_buffer, %class.svector.0, %class.svector.2 }
%class.numeral_buffer = type { ptr, %class.svector }
%class.svector = type { %class.vector }
%class.vector = type { ptr }
%class.svector.4 = type { %class.vector.5 }
%class.vector.5 = type { ptr }
%class.svector.0 = type { %class.vector.1 }
%class.vector.1 = type { ptr }
%class.ptr_vector = type { %class.vector.6 }
%class.vector.6 = type { ptr }
%class.vector.7 = type { ptr }
%class.svector.8 = type { %class.vector.9 }
%class.vector.9 = type { ptr }
%class.svector.10 = type { %class.vector.11 }
%class.vector.11 = type { ptr }
%class.svector.2 = type { %class.vector.3 }
%class.vector.3 = type { ptr }
%class.svector.12 = type { %class.vector.13 }
%class.vector.13 = type { ptr }
%"class.bound_propagator::constraint" = type { i8, i32, i32, i32, %union.anon.14 }
%union.anon.14 = type { ptr }
%class.linear_equation = type { i32, ptr, ptr, ptr }

; Function Attrs: mustprogress uwtable
define linkonce_odr hidden void @_ZN11mpz_managerILb0EE3delER3mpz(ptr noundef nonnull align 8 dereferenceable(600) %this, ptr noundef nonnull align 8 dereferenceable(16) %a) #4 comdat align 2 {
entry:
  %this.addr = alloca ptr, align 8
  %a.addr = alloca ptr, align 8
  store ptr %this, ptr %this.addr, align 8
  store ptr %a, ptr %a.addr, align 8
  %this1 = load ptr, ptr %this.addr, align 8
  %0 = load ptr, ptr %a.addr, align 8
  call void @_ZN11mpz_managerILb0EE3delEPS0_R3mpz(ptr noundef %this1, ptr noundef nonnull align 8 dereferenceable(16) %0)
  ret void
}

; Function Attrs: mustprogress nounwind uwtable
define linkonce_odr hidden noundef i32 @_ZN11mpz_managerILb0EE4signERK3mpz(ptr noundef nonnull align 8 dereferenceable(16) %a) #5 comdat align 2 {
entry:
  %a.addr = alloca ptr, align 8
  store ptr %a, ptr %a.addr, align 8
  %0 = load ptr, ptr %a.addr, align 8
  %m_val = getelementptr inbounds %class.mpz, ptr %0, i32 0, i32 0
  %1 = load i32, ptr %m_val, align 8
  ret i32 %1
}

; Function Attrs: mustprogress uwtable
define linkonce_odr hidden void @_ZN11mpq_managerILb0EE3delER3mpz(ptr noundef nonnull align 8 dereferenceable(728) %this, ptr noundef nonnull align 8 dereferenceable(16) %a) #4 comdat align 2 {
entry:
  %this.addr = alloca ptr, align 8
  %a.addr = alloca ptr, align 8
  store ptr %this, ptr %this.addr, align 8
  store ptr %a, ptr %a.addr, align 8
  %this1 = load ptr, ptr %this.addr, align 8
  %0 = load ptr, ptr %a.addr, align 8
  call void @_ZN11mpz_managerILb0EE3delER3mpz(ptr noundef nonnull align 8 dereferenceable(600) %this1, ptr noundef nonnull align 8 dereferenceable(16) %0)
  ret void
}

; Function Attrs: mustprogress nounwind uwtable
define linkonce_odr hidden noundef zeroext i1 @_ZN11mpz_managerILb0EE6is_negERK3mpz(ptr noundef nonnull align 8 dereferenceable(16) %a) #5 comdat align 2 {
entry:
  %a.addr = alloca ptr, align 8
  store ptr %a, ptr %a.addr, align 8
  %0 = load ptr, ptr %a.addr, align 8
  %call = call noundef i32 @_ZN11mpz_managerILb0EE4signERK3mpz(ptr noundef nonnull align 8 dereferenceable(16) %0)
  %cmp = icmp slt i32 %call, 0
  ret i1 %cmp
}

; Function Attrs: mustprogress nounwind uwtable
define linkonce_odr hidden void @_ZN3mpzC2Ei(ptr noundef nonnull align 8 dereferenceable(16) %this, i32 noundef %v) unnamed_addr #5 comdat align 2 {
entry:
  %this.addr = alloca ptr, align 8
  %v.addr = alloca i32, align 4
  store ptr %this, ptr %this.addr, align 8
  store i32 %v, ptr %v.addr, align 4
  %this1 = load ptr, ptr %this.addr, align 8
  %m_val = getelementptr inbounds %class.mpz, ptr %this1, i32 0, i32 0
  %0 = load i32, ptr %v.addr, align 4
  store i32 %0, ptr %m_val, align 8
  %m_kind = getelementptr inbounds %class.mpz, ptr %this1, i32 0, i32 1
  %bf.load = load i8, ptr %m_kind, align 4
  %bf.clear = and i8 %bf.load, -2
  %bf.set = or i8 %bf.clear, 0
  store i8 %bf.set, ptr %m_kind, align 4
  %m_owner = getelementptr inbounds %class.mpz, ptr %this1, i32 0, i32 1
  %bf.load2 = load i8, ptr %m_owner, align 4
  %bf.clear3 = and i8 %bf.load2, -3
  %bf.set4 = or i8 %bf.clear3, 0
  store i8 %bf.set4, ptr %m_owner, align 4
  %m_ptr = getelementptr inbounds %class.mpz, ptr %this1, i32 0, i32 2
  store ptr null, ptr %m_ptr, align 8
  ret void
}

; Function Attrs: mustprogress nounwind uwtable
define linkonce_odr hidden void @_ZN3mpzC2Ev(ptr noundef nonnull align 8 dereferenceable(16) %this) unnamed_addr #5 comdat align 2 {
entry:
  %this.addr = alloca ptr, align 8
  store ptr %this, ptr %this.addr, align 8
  %this1 = load ptr, ptr %this.addr, align 8
  %m_val = getelementptr inbounds %class.mpz, ptr %this1, i32 0, i32 0
  store i32 0, ptr %m_val, align 8
  %m_kind = getelementptr inbounds %class.mpz, ptr %this1, i32 0, i32 1
  %bf.load = load i8, ptr %m_kind, align 4
  %bf.clear = and i8 %bf.load, -2
  %bf.set = or i8 %bf.clear, 0
  store i8 %bf.set, ptr %m_kind, align 4
  %m_owner = getelementptr inbounds %class.mpz, ptr %this1, i32 0, i32 1
  %bf.load2 = load i8, ptr %m_owner, align 4
  %bf.clear3 = and i8 %bf.load2, -3
  %bf.set4 = or i8 %bf.clear3, 0
  store i8 %bf.set4, ptr %m_owner, align 4
  %m_ptr = getelementptr inbounds %class.mpz, ptr %this1, i32 0, i32 2
  store ptr null, ptr %m_ptr, align 8
  ret void
}

; Function Attrs: mustprogress uwtable
define linkonce_odr hidden void @_ZN11mpq_managerILb0EE3delER3mpq(ptr noundef nonnull align 8 dereferenceable(728) %this, ptr noundef nonnull align 8 dereferenceable(32) %a) #4 comdat align 2 {
entry:
  %this.addr = alloca ptr, align 8
  %a.addr = alloca ptr, align 8
  store ptr %this, ptr %this.addr, align 8
  store ptr %a, ptr %a.addr, align 8
  %this1 = load ptr, ptr %this.addr, align 8
  %0 = load ptr, ptr %a.addr, align 8
  %m_num = getelementptr inbounds %class.mpq, ptr %0, i32 0, i32 0
  call void @_ZN11mpq_managerILb0EE3delER3mpz(ptr noundef nonnull align 8 dereferenceable(728) %this1, ptr noundef nonnull align 8 dereferenceable(16) %m_num)
  %1 = load ptr, ptr %a.addr, align 8
  %m_den = getelementptr inbounds %class.mpq, ptr %1, i32 0, i32 1
  call void @_ZN11mpq_managerILb0EE3delER3mpz(ptr noundef nonnull align 8 dereferenceable(728) %this1, ptr noundef nonnull align 8 dereferenceable(16) %m_den)
  ret void
}

; Function Attrs: mustprogress uwtable
define linkonce_odr hidden void @_ZN11mpq_managerILb0EE3negER3mpq(ptr noundef nonnull align 8 dereferenceable(728) %this, ptr noundef nonnull align 8 dereferenceable(32) %a) #4 comdat align 2 {
entry:
  %this.addr = alloca ptr, align 8
  %a.addr = alloca ptr, align 8
  store ptr %this, ptr %this.addr, align 8
  store ptr %a, ptr %a.addr, align 8
  %this1 = load ptr, ptr %this.addr, align 8
  %0 = load ptr, ptr %a.addr, align 8
  %m_num = getelementptr inbounds %class.mpq, ptr %0, i32 0, i32 0
  call void @_ZN11mpz_managerILb0EE3negER3mpz(ptr noundef nonnull align 8 dereferenceable(600) %this1, ptr noundef nonnull align 8 dereferenceable(16) %m_num)
  ret void
}

; Function Attrs: mustprogress nounwind uwtable
define linkonce_odr hidden noundef nonnull align 8 dereferenceable(8) ptr @_ZN6vectorIPN16bound_propagator5boundELb0EjEixEj(ptr noundef nonnull align 8 dereferenceable(8) %this, i32 noundef %idx) #5 comdat align 2 {
entry:
  %this.addr = alloca ptr, align 8
  %idx.addr = alloca i32, align 4
  store ptr %this, ptr %this.addr, align 8
  store i32 %idx, ptr %idx.addr, align 4
  %this1 = load ptr, ptr %this.addr, align 8
  %m_data = getelementptr inbounds %class.vector.6, ptr %this1, i32 0, i32 0
  %0 = load ptr, ptr %m_data, align 8
  %1 = load i32, ptr %idx.addr, align 4
  %idxprom = zext i32 %1 to i64
  %arrayidx = getelementptr inbounds ptr, ptr %0, i64 %idxprom
  ret ptr %arrayidx
}

; Function Attrs: mustprogress uwtable
define linkonce_odr hidden noundef zeroext i1 @_ZN11mpq_managerILb0EE6is_negERK3mpz(ptr noundef nonnull align 8 dereferenceable(16) %a) #4 comdat align 2 {
entry:
  %a.addr = alloca ptr, align 8
  store ptr %a, ptr %a.addr, align 8
  %0 = load ptr, ptr %a.addr, align 8
  %call = call noundef zeroext i1 @_ZN11mpz_managerILb0EE6is_negERK3mpz(ptr noundef nonnull align 8 dereferenceable(16) %0)
  ret i1 %call
}

; Function Attrs: mustprogress uwtable
define linkonce_odr hidden void @_ZN3mpqC2Ev(ptr noundef nonnull align 8 dereferenceable(32) %this) unnamed_addr #4 comdat align 2 {
entry:
  %this.addr = alloca ptr, align 8
  store ptr %this, ptr %this.addr, align 8
  %this1 = load ptr, ptr %this.addr, align 8
  %m_num = getelementptr inbounds %class.mpq, ptr %this1, i32 0, i32 0
  call void @_ZN3mpzC2Ev(ptr noundef nonnull align 8 dereferenceable(16) %m_num)
  %m_den = getelementptr inbounds %class.mpq, ptr %this1, i32 0, i32 1
  call void @_ZN3mpzC2Ei(ptr noundef nonnull align 8 dereferenceable(16) %m_den, i32 noundef 1)
  ret void
}

; Function Attrs: mustprogress nounwind uwtable
define linkonce_odr hidden noundef i32 @_ZNK15linear_equation4sizeEv(ptr noundef nonnull align 8 dereferenceable(32) %this) #5 comdat align 2 {
entry:
  %this.addr = alloca ptr, align 8
  store ptr %this, ptr %this.addr, align 8
  %this1 = load ptr, ptr %this.addr, align 8
  %m_size = getelementptr inbounds %class.linear_equation, ptr %this1, i32 0, i32 0
  %0 = load i32, ptr %m_size, align 8
  ret i32 %0
}

; Function Attrs: mustprogress nounwind uwtable
define linkonce_odr hidden noundef nonnull align 8 dereferenceable(16) ptr @_ZNK15linear_equation1aEj(ptr noundef nonnull align 8 dereferenceable(32) %this, i32 noundef %idx) #5 comdat align 2 {
entry:
  %this.addr = alloca ptr, align 8
  %idx.addr = alloca i32, align 4
  store ptr %this, ptr %this.addr, align 8
  store i32 %idx, ptr %idx.addr, align 4
  %this1 = load ptr, ptr %this.addr, align 8
  %m_as = getelementptr inbounds %class.linear_equation, ptr %this1, i32 0, i32 1
  %0 = load ptr, ptr %m_as, align 8
  %1 = load i32, ptr %idx.addr, align 4
  %idxprom = zext i32 %1 to i64
  %arrayidx = getelementptr inbounds %class.mpz, ptr %0, i64 %idxprom
  ret ptr %arrayidx
}

; Function Attrs: mustprogress nounwind uwtable
define linkonce_odr hidden noundef i32 @_ZNK15linear_equation1xEj(ptr noundef nonnull align 8 dereferenceable(32) %this, i32 noundef %idx) #5 comdat align 2 {
entry:
  %this.addr = alloca ptr, align 8
  %idx.addr = alloca i32, align 4
  store ptr %this, ptr %this.addr, align 8
  store i32 %idx, ptr %idx.addr, align 4
  %this1 = load ptr, ptr %this.addr, align 8
  %m_xs = getelementptr inbounds %class.linear_equation, ptr %this1, i32 0, i32 3
  %0 = load ptr, ptr %m_xs, align 8
  %1 = load i32, ptr %idx.addr, align 4
  %idxprom = zext i32 %1 to i64
  %arrayidx = getelementptr inbounds i32, ptr %0, i64 %idxprom
  %2 = load i32, ptr %arrayidx, align 4
  ret i32 %2
}

; Function Attrs: mustprogress nounwind uwtable
define linkonce_odr hidden noundef nonnull align 8 dereferenceable(24) ptr @_ZN6vectorIN16bound_propagator10constraintELb0EjEixEj(ptr noundef nonnull align 8 dereferenceable(8) %this, i32 noundef %idx) #5 comdat align 2 {
entry:
  %this.addr = alloca ptr, align 8
  %idx.addr = alloca i32, align 4
  store ptr %this, ptr %this.addr, align 8
  store i32 %idx, ptr %idx.addr, align 4
  %this1 = load ptr, ptr %this.addr, align 8
  %m_data = getelementptr inbounds %class.vector.5, ptr %this1, i32 0, i32 0
  %0 = load ptr, ptr %m_data, align 8
  %1 = load i32, ptr %idx.addr, align 4
  %idxprom = zext i32 %1 to i64
  %arrayidx = getelementptr inbounds %"class.bound_propagator::constraint", ptr %0, i64 %idxprom
  ret ptr %arrayidx
}

; Function Attrs: mustprogress uwtable
define hidden noundef zeroext i1 @_ZN16bound_propagator15propagate_upperEjj(ptr noundef nonnull align 8 dereferenceable(280) %this, i32 noundef %c_idx, i32 noundef %i) #4 align 2 {
entry:
  %this.addr = alloca ptr, align 8
  %c_idx.addr = alloca i32, align 4
  %i.addr = alloca i32, align 4
  %c = alloca ptr, align 8
  %eq = alloca ptr, align 8
  %x_i = alloca i32, align 4
  %a_i = alloca ptr, align 8
  %sz = alloca i32, align 4
  %k = alloca %class.mpq, align 8
  %strict = alloca i8, align 1
  %neg_a_i = alloca i8, align 1
  %j = alloca i32, align 4
  %x_j = alloca i32, align 4
  %a_j = alloca ptr, align 8
  %b_j = alloca ptr, align 8
  %r = alloca i8, align 1
  store ptr %this, ptr %this.addr, align 8
  store i32 %c_idx, ptr %c_idx.addr, align 4
  store i32 %i, ptr %i.addr, align 4
  %this1 = load ptr, ptr %this.addr, align 8
  %m_constraints = getelementptr inbounds %class.bound_propagator, ptr %this1, i32 0, i32 3
  %0 = load i32, ptr %c_idx.addr, align 4
  %call = call noundef nonnull align 8 dereferenceable(24) ptr @_ZN6vectorIN16bound_propagator10constraintELb0EjEixEj(ptr noundef nonnull align 8 dereferenceable(8) %m_constraints, i32 noundef %0)
  store ptr %call, ptr %c, align 8
  %1 = load ptr, ptr %c, align 8
  %2 = getelementptr inbounds %"class.bound_propagator::constraint", ptr %1, i32 0, i32 4
  %3 = load ptr, ptr %2, align 8
  store ptr %3, ptr %eq, align 8
  %4 = load ptr, ptr %eq, align 8
  %5 = load i32, ptr %i.addr, align 4
  %call2 = call noundef i32 @_ZNK15linear_equation1xEj(ptr noundef nonnull align 8 dereferenceable(32) %4, i32 noundef %5)
  store i32 %call2, ptr %x_i, align 4
  %6 = load ptr, ptr %eq, align 8
  %7 = load i32, ptr %i.addr, align 4
  %call3 = call noundef nonnull align 8 dereferenceable(16) ptr @_ZNK15linear_equation1aEj(ptr noundef nonnull align 8 dereferenceable(32) %6, i32 noundef %7)
  store ptr %call3, ptr %a_i, align 8
  %8 = load ptr, ptr %eq, align 8
  %call4 = call noundef i32 @_ZNK15linear_equation4sizeEv(ptr noundef nonnull align 8 dereferenceable(32) %8)
  store i32 %call4, ptr %sz, align 4
  call void @_ZN3mpqC2Ev(ptr noundef nonnull align 8 dereferenceable(32) %k)
  store i8 0, ptr %strict, align 1
  %9 = load ptr, ptr %a_i, align 8
  %call5 = call noundef zeroext i1 @_ZN11mpq_managerILb0EE6is_negERK3mpz(ptr noundef nonnull align 8 dereferenceable(16) %9)
  %frombool = zext i1 %call5 to i8
  store i8 %frombool, ptr %neg_a_i, align 1
  store i32 0, ptr %j, align 4
  br label %for.cond

for.cond:                                         ; preds = %for.inc, %entry
  %10 = load i32, ptr %j, align 4
  %11 = load i32, ptr %sz, align 4
  %cmp = icmp ult i32 %10, %11
  br i1 %cmp, label %for.body, label %for.end

for.body:                                         ; preds = %for.cond
  %12 = load i32, ptr %i.addr, align 4
  %13 = load i32, ptr %j, align 4
  %cmp6 = icmp eq i32 %12, %13
  br i1 %cmp6, label %if.then, label %if.end

if.then:                                          ; preds = %for.body
  br label %for.inc

if.end:                                           ; preds = %for.body
  %14 = load ptr, ptr %eq, align 8
  %15 = load i32, ptr %j, align 4
  %call7 = call noundef i32 @_ZNK15linear_equation1xEj(ptr noundef nonnull align 8 dereferenceable(32) %14, i32 noundef %15)
  store i32 %call7, ptr %x_j, align 4
  %16 = load ptr, ptr %eq, align 8
  %17 = load i32, ptr %j, align 4
  %call8 = call noundef nonnull align 8 dereferenceable(16) ptr @_ZNK15linear_equation1aEj(ptr noundef nonnull align 8 dereferenceable(32) %16, i32 noundef %17)
  store ptr %call8, ptr %a_j, align 8
  %18 = load ptr, ptr %a_j, align 8
  %call10 = call noundef zeroext i1 @_ZN11mpq_managerILb0EE6is_negERK3mpz(ptr noundef nonnull align 8 dereferenceable(16) %18)
  %conv = zext i1 %call10 to i32
  %19 = load i8, ptr %neg_a_i, align 1
  %tobool = trunc i8 %19 to i1
  %conv11 = zext i1 %tobool to i32
  %cmp12 = icmp eq i32 %conv, %conv11
  br i1 %cmp12, label %cond.true, label %cond.false

cond.true:                                        ; preds = %if.end
  %m_lowers = getelementptr inbounds %class.bound_propagator, ptr %this1, i32 0, i32 6
  %20 = load i32, ptr %x_j, align 4
  %call13 = call noundef nonnull align 8 dereferenceable(8) ptr @_ZN6vectorIPN16bound_propagator5boundELb0EjEixEj(ptr noundef nonnull align 8 dereferenceable(8) %m_lowers, i32 noundef %20)
  %21 = load ptr, ptr %call13, align 8
  br label %cond.end

cond.false:                                       ; preds = %if.end
  %m_uppers = getelementptr inbounds %class.bound_propagator, ptr %this1, i32 0, i32 7
  %22 = load i32, ptr %x_j, align 4
  %call14 = call noundef nonnull align 8 dereferenceable(8) ptr @_ZN6vectorIPN16bound_propagator5boundELb0EjEixEj(ptr noundef nonnull align 8 dereferenceable(8) %m_uppers, i32 noundef %22)
  %23 = load ptr, ptr %call14, align 8
  br label %cond.end

cond.end:                                         ; preds = %cond.false, %cond.true
  %cond = phi ptr [ %21, %cond.true ], [ %23, %cond.false ]
  store ptr %cond, ptr %b_j, align 8
  %24 = load ptr, ptr %b_j, align 8
  %m_strict = getelementptr inbounds %"struct.bound_propagator::bound", ptr %24, i32 0, i32 2
  %bf.load = load i32, ptr %m_strict, align 8
  %bf.lshr = lshr i32 %bf.load, 1
  %bf.clear = and i32 %bf.lshr, 1
  %tobool15 = icmp ne i32 %bf.clear, 0
  br i1 %tobool15, label %if.then16, label %if.end17

if.then16:                                        ; preds = %cond.end
  store i8 1, ptr %strict, align 1
  br label %if.end17

if.end17:                                         ; preds = %if.then16, %cond.end
  %m18 = getelementptr inbounds %class.bound_propagator, ptr %this1, i32 0, i32 0
  %25 = load ptr, ptr %m18, align 8
  %26 = load ptr, ptr %a_j, align 8
  %27 = load ptr, ptr %b_j, align 8
  %m_k = getelementptr inbounds %"struct.bound_propagator::bound", ptr %27, i32 0, i32 0
  call void @_ZN11mpq_managerILb0EE6addmulERK3mpqRK3mpzS3_RS1_(ptr noundef nonnull align 8 dereferenceable(728) %25, ptr noundef nonnull align 8 dereferenceable(32) %k, ptr noundef nonnull align 8 dereferenceable(16) %26, ptr noundef nonnull align 8 dereferenceable(32) %m_k, ptr noundef nonnull align 8 dereferenceable(32) %k)
  br label %for.inc

for.inc:                                          ; preds = %if.end17, %if.then
  %28 = load i32, ptr %j, align 4
  %inc = add i32 %28, 1
  store i32 %inc, ptr %j, align 4
  br label %for.cond, !llvm.loop !12

for.end:                                          ; preds = %for.cond
  %m19 = getelementptr inbounds %class.bound_propagator, ptr %this1, i32 0, i32 0
  %29 = load ptr, ptr %m19, align 8
  call void @_ZN11mpq_managerILb0EE3negER3mpq(ptr noundef nonnull align 8 dereferenceable(728) %29, ptr noundef nonnull align 8 dereferenceable(32) %k)
  %m20 = getelementptr inbounds %class.bound_propagator, ptr %this1, i32 0, i32 0
  %30 = load ptr, ptr %m20, align 8
  %31 = load ptr, ptr %a_i, align 8
  call void @_ZN11mpq_managerILb0EE3divERK3mpqRK3mpzRS1_(ptr noundef nonnull align 8 dereferenceable(728) %30, ptr noundef nonnull align 8 dereferenceable(32) %k, ptr noundef nonnull align 8 dereferenceable(16) %31, ptr noundef nonnull align 8 dereferenceable(32) %k)
  %32 = load i32, ptr %x_i, align 4
  %33 = load i8, ptr %strict, align 1
  %tobool21 = trunc i8 %33 to i1
  %34 = load i32, ptr %c_idx.addr, align 4
  %call22 = call noundef zeroext i1 @_ZN16bound_propagator17assert_upper_coreEjR3mpqbNS_5bkindEjj(ptr noundef nonnull align 8 dereferenceable(280) %this1, i32 noundef %32, ptr noundef nonnull align 8 dereferenceable(32) %k, i1 noundef zeroext %tobool21, i32 noundef 2, i32 noundef %34, i32 noundef -1)
  %frombool23 = zext i1 %call22 to i8
  store i8 %frombool23, ptr %r, align 1
  %m24 = getelementptr inbounds %class.bound_propagator, ptr %this1, i32 0, i32 0
  %35 = load ptr, ptr %m24, align 8
  call void @_ZN11mpq_managerILb0EE3delER3mpq(ptr noundef nonnull align 8 dereferenceable(728) %35, ptr noundef nonnull align 8 dereferenceable(32) %k)
  %36 = load i8, ptr %r, align 1
  %tobool25 = trunc i8 %36 to i1
  ret i1 %tobool25
}