; Function Attrs: mustprogress uwtable
define hidden noundef zeroext i1 @_ZN16bound_propagator15propagate_upperEjj(ptr noundef nonnull align 8 dereferenceable(280) %this, i32 noundef %c_idx, i32 noundef %i) local_unnamed_addr #3 align 2 {
entry:
  %k = alloca %class.mpq, align 8
  %m_constraints = getelementptr inbounds i8, ptr %this, i64 80
  %0 = load ptr, ptr %m_constraints, align 8
  %idxprom.i = zext i32 %c_idx to i64
  %1 = getelementptr inbounds %"class.bound_propagator::constraint", ptr %0, i64 %idxprom.i, i32 4
  %2 = load ptr, ptr %1, align 8
  %m_xs.i = getelementptr inbounds i8, ptr %2, i64 24
  %3 = load ptr, ptr %m_xs.i, align 8
  %idxprom.i16 = zext i32 %i to i64
  %arrayidx.i17 = getelementptr inbounds i32, ptr %3, i64 %idxprom.i16
  %4 = load i32, ptr %arrayidx.i17, align 4
  %m_as.i = getelementptr inbounds i8, ptr %2, i64 8
  %5 = load ptr, ptr %m_as.i, align 8
  %arrayidx.i19 = getelementptr inbounds %class.mpz, ptr %5, i64 %idxprom.i16
  %6 = load i32, ptr %2, align 8
  store i32 0, ptr %k, align 8
  %m_kind.i.i = getelementptr inbounds i8, ptr %k, i64 4
  store i8 0, ptr %m_kind.i.i, align 4
  %m_ptr.i.i = getelementptr inbounds i8, ptr %k, i64 8
  store ptr null, ptr %m_ptr.i.i, align 8
  %m_den.i = getelementptr inbounds i8, ptr %k, i64 16
  store i32 1, ptr %m_den.i, align 8
  %m_kind.i1.i = getelementptr inbounds i8, ptr %k, i64 20
  store i8 0, ptr %m_kind.i1.i, align 4
  %m_ptr.i4.i = getelementptr inbounds i8, ptr %k, i64 24
  store ptr null, ptr %m_ptr.i4.i, align 8
  %7 = load i32, ptr %arrayidx.i19, align 8
  %cmp32.not = icmp eq i32 %6, 0
  br i1 %cmp32.not, label %for.end, label %for.body.lr.ph

for.body.lr.ph:                                   ; preds = %entry
  %m_lowers = getelementptr inbounds i8, ptr %this, i64 104
  %m_uppers = getelementptr inbounds i8, ptr %this, i64 112
  %wide.trip.count = zext i32 %6 to i64
  br label %for.body

for.body:                                         ; preds = %for.body.lr.ph, %for.inc
  %indvars.iv = phi i64 [ 0, %for.body.lr.ph ], [ %indvars.iv.next, %for.inc ]
  %strict.034 = phi i8 [ 0, %for.body.lr.ph ], [ %strict.2, %for.inc ]
  %cmp6 = icmp eq i64 %indvars.iv, %idxprom.i16
  br i1 %cmp6, label %for.inc, label %if.end

if.end:                                           ; preds = %for.body
  %8 = load ptr, ptr %m_xs.i, align 8
  %arrayidx.i22 = getelementptr inbounds i32, ptr %8, i64 %indvars.iv
  %9 = load i32, ptr %arrayidx.i22, align 4
  %10 = load ptr, ptr %m_as.i, align 8
  %arrayidx.i25 = getelementptr inbounds %class.mpz, ptr %10, i64 %indvars.iv
  %11 = load i32, ptr %arrayidx.i25, align 8
  %12 = xor i32 %11, %7
  %13 = icmp slt i32 %12, 0
  %14 = load ptr, ptr %m_lowers, align 8
  %idxprom.i27 = zext i32 %9 to i64
  %15 = load ptr, ptr %m_uppers, align 8
  %cond.in.v = select i1 %13, ptr %15, ptr %14
  %cond.in = getelementptr inbounds ptr, ptr %cond.in.v, i64 %idxprom.i27
  %cond = load ptr, ptr %cond.in, align 8
  %m_strict = getelementptr inbounds i8, ptr %cond, i64 40
  %bf.load = load i32, ptr %m_strict, align 8
  %16 = and i32 %bf.load, 2
  %tobool15.not = icmp eq i32 %16, 0
  %spec.select = select i1 %tobool15.not, i8 %strict.034, i8 1
  %17 = load ptr, ptr %this, align 8
  call void @_ZN11mpq_managerILb0EE6addmulERK3mpqRK3mpzS3_RS1_(ptr noundef nonnull align 8 dereferenceable(728) %17, ptr noundef nonnull align 8 dereferenceable(32) %k, ptr noundef nonnull align 8 dereferenceable(16) %arrayidx.i25, ptr noundef nonnull align 8 dereferenceable(32) %cond, ptr noundef nonnull align 8 dereferenceable(32) %k)
  br label %for.inc

for.inc:                                          ; preds = %for.body, %if.end
  %strict.2 = phi i8 [ %strict.034, %for.body ], [ %spec.select, %if.end ]
  %indvars.iv.next = add nuw nsw i64 %indvars.iv, 1
  %exitcond.not = icmp eq i64 %indvars.iv.next, %wide.trip.count
  br i1 %exitcond.not, label %for.end.loopexit, label %for.body, !llvm.loop !18

for.end.loopexit:                                 ; preds = %for.inc
  %18 = and i8 %strict.2, 1
  %19 = icmp ne i8 %18, 0
  br label %for.end

for.end:                                          ; preds = %for.end.loopexit, %entry
  %strict.0.lcssa = phi i1 [ false, %entry ], [ %19, %for.end.loopexit ]
  %20 = load ptr, ptr %this, align 8
  call void @_ZN11mpz_managerILb0EE3negER3mpz(ptr noundef nonnull align 8 dereferenceable(600) %20, ptr noundef nonnull align 8 dereferenceable(16) %k)
  %21 = load ptr, ptr %this, align 8
  call void @_ZN11mpq_managerILb0EE3divERK3mpqRK3mpzRS1_(ptr noundef nonnull align 8 dereferenceable(728) %21, ptr noundef nonnull align 8 dereferenceable(32) %k, ptr noundef nonnull align 8 dereferenceable(16) %arrayidx.i19, ptr noundef nonnull align 8 dereferenceable(32) %k)
  %call22 = call noundef zeroext i1 @_ZN16bound_propagator17assert_upper_coreEjR3mpqbNS_5bkindEjj(ptr noundef nonnull align 8 dereferenceable(280) %this, i32 noundef %4, ptr noundef nonnull align 8 dereferenceable(32) %k, i1 noundef zeroext %strict.0.lcssa, i32 noundef 2, i32 noundef %c_idx, i32 noundef -1)
  %22 = load ptr, ptr %this, align 8
  call void @_ZN11mpz_managerILb0EE3delEPS0_R3mpz(ptr noundef nonnull %22, ptr noundef nonnull align 8 dereferenceable(16) %k)
  call void @_ZN11mpz_managerILb0EE3delEPS0_R3mpz(ptr noundef nonnull %22, ptr noundef nonnull align 8 dereferenceable(16) %m_den.i)
  ret i1 %call22
}